target datalayout = "e-m:e-p270:32:32-p271:32:32-p272:64:64-i64:64-i128:128-f80:128-n8:16:32:64-S128"
target triple = "x86_64-pc-linux-gnu"

%struct.expert_field = type { i32, i32 }
%struct._packet_info = type { ptr, ptr, i32, i32, %struct.nstime_t, %struct.nstime_t, %struct.nstime_t, i8, ptr, ptr, ptr, ptr, %struct._address, %struct._address, %struct._address, %struct._address, %struct._address, %struct._address, i32, ptr, i8, [3 x i8], %struct.anon, i32, i32, i32, i32, ptr, i8, ptr, ptr, i16, i16, i32, i32, i16, i32, i32, ptr, ptr, ptr, i8, i8, i16, i16, i16, i32, i16, i16, ptr, ptr, ptr, ptr, ptr, i32, i32 }
%struct.nstime_t = type { i64, i32 }
%struct._address = type { i32, i32, ptr, ptr }
%struct.anon = type { i8, [3 x i8] }

@ei_gsm_sms_short_data = internal global %struct.expert_field zeroinitializer, align 4
@.str = private unnamed_addr constant [19 x i8] c"%s: Short Data (?)\00", align 1
@ett_addr = internal global i32 0, align 4
@hf_gsm_sms_dis_field_addr_length = internal global i32 0, align 4
@.str.1 = private unnamed_addr constant [18 x i8] c"%d address digits\00", align 1
@hf_gsm_sms_dis_field_addr_extension = internal global i32 0, align 4
@hf_gsm_sms_dis_field_addr_num_type = internal global i32 0, align 4
@hf_gsm_sms_dis_field_addr_num_plan = internal global i32 0, align 4
@.str.2 = private unnamed_addr constant [5 x i8] c"TP-O\00", align 1
@hf_gsm_sms_tp_oa = internal global i32 0, align 4
@proto_gsm_sms = internal global i32 0, align 4
@.str.3 = private unnamed_addr constant [5 x i8] c"TP-D\00", align 1
@hf_gsm_sms_tp_da = internal global i32 0, align 4
@.str.4 = private unnamed_addr constant [5 x i8] c"TP-R\00", align 1
@hf_gsm_sms_tp_ra = internal global i32 0, align 4
@hf_gsm_sms_tp_digits = internal global i32 0, align 4
@.str.5 = private unnamed_addr constant [8 x i8] c" - (%s)\00", align 1

; Function Attrs: null_pointer_is_valid sspstrong uwtable
define hidden void @dis_field_addr(ptr noundef %0, ptr noundef %1, ptr noundef %2, ptr noundef %3, ptr noundef %4) #0 {
  %6 = alloca ptr, align 8
  %7 = alloca ptr, align 8
  %8 = alloca ptr, align 8
  %9 = alloca ptr, align 8
  %10 = alloca ptr, align 8
  %11 = alloca ptr, align 8
  %12 = alloca ptr, align 8
  %13 = alloca i8, align 1
  %14 = alloca i8, align 1
  %15 = alloca i32, align 4
  %16 = alloca i32, align 4
  %17 = alloca i32, align 4
  %18 = alloca i32, align 4
  %19 = alloca ptr, align 8
  %20 = alloca i32, align 4
  store ptr %0, ptr %6, align 8
  store ptr %1, ptr %7, align 8
  store ptr %2, ptr %8, align 8
  store ptr %3, ptr %9, align 8
  store ptr %4, ptr %10, align 8
  call void @llvm.lifetime.start.p0(i64 8, ptr %11) #13
  call void @llvm.lifetime.start.p0(i64 8, ptr %12) #13
  call void @llvm.lifetime.start.p0(i64 1, ptr %13) #13
  call void @llvm.lifetime.start.p0(i64 1, ptr %14) #13
  call void @llvm.lifetime.start.p0(i64 4, ptr %15) #13
  call void @llvm.lifetime.start.p0(i64 4, ptr %16) #13
  call void @llvm.lifetime.start.p0(i64 4, ptr %17) #13
  call void @llvm.lifetime.start.p0(i64 4, ptr %18) #13
  call void @llvm.lifetime.start.p0(i64 8, ptr %19) #13
  %21 = load ptr, ptr %9, align 8
  %22 = load i32, ptr %21, align 4
  store i32 %22, ptr %15, align 4
  %23 = load ptr, ptr %6, align 8
  %24 = load i32, ptr %15, align 4
  %25 = call zeroext i8 @tvb_get_uint8(ptr noundef %23, i32 noundef %24)
  %26 = zext i8 %25 to i32
  store i32 %26, ptr %18, align 4
  %27 = load i32, ptr %18, align 4
  %28 = add i32 %27, 1
  %29 = udiv i32 %28, 2
  store i32 %29, ptr %16, align 4
  %30 = load ptr, ptr %6, align 8
  %31 = load i32, ptr %15, align 4
  %32 = call i32 @tvb_reported_length_remaining(ptr noundef %30, i32 noundef %31)
  store i32 %32, ptr %17, align 4
  %33 = load i32, ptr %17, align 4
  %34 = load i32, ptr %16, align 4
  %35 = icmp ule i32 %33, %34
  br i1 %35, label %36, label %48

36:                                               ; preds = %5
  %37 = load ptr, ptr %8, align 8
  %38 = load ptr, ptr %7, align 8
  %39 = load ptr, ptr %6, align 8
  %40 = load i32, ptr %15, align 4
  %41 = load i32, ptr %17, align 4
  %42 = load ptr, ptr %10, align 8
  %43 = call ptr (ptr, ptr, ptr, ptr, i32, i32, ptr, ...) @proto_tree_add_expert_format(ptr noundef %37, ptr noundef %38, ptr noundef @ei_gsm_sms_short_data, ptr noundef %39, i32 noundef %40, i32 noundef %41, ptr noundef @.str, ptr noundef %42)
  %44 = load i32, ptr %17, align 4
  %45 = load ptr, ptr %9, align 8
  %46 = load i32, ptr %45, align 4
  %47 = add i32 %46, %44
  store i32 %47, ptr %45, align 4
  store i32 1, ptr %20, align 4
  br label %225

48:                                               ; preds = %5
  %49 = load ptr, ptr %8, align 8
  %50 = load ptr, ptr %6, align 8
  %51 = load i32, ptr %15, align 4
  %52 = load i32, ptr %16, align 4
  %53 = add i32 %52, 2
  %54 = load i32, ptr @ett_addr, align 4
  %55 = load ptr, ptr %10, align 8
  %56 = call ptr @proto_tree_add_subtree(ptr noundef %49, ptr noundef %50, i32 noundef %51, i32 noundef %53, i32 noundef %54, ptr noundef %11, ptr noundef %55)
  store ptr %56, ptr %12, align 8
  %57 = load ptr, ptr %12, align 8
  %58 = load i32, ptr @hf_gsm_sms_dis_field_addr_length, align 4
  %59 = load ptr, ptr %6, align 8
  %60 = load i32, ptr %15, align 4
  %61 = load i32, ptr %18, align 4
  %62 = load i32, ptr %18, align 4
  %63 = call ptr (ptr, i32, ptr, i32, i32, i32, ptr, ...) @proto_tree_add_uint_format_value(ptr noundef %57, i32 noundef %58, ptr noundef %59, i32 noundef %60, i32 noundef 1, i32 noundef %61, ptr noundef @.str.1, i32 noundef %62)
  %64 = load i32, ptr %15, align 4
  %65 = add i32 %64, 1
  store i32 %65, ptr %15, align 4
  %66 = load ptr, ptr %6, align 8
  %67 = load i32, ptr %15, align 4
  %68 = call zeroext i8 @tvb_get_uint8(ptr noundef %66, i32 noundef %67)
  store i8 %68, ptr %13, align 1
  %69 = load i8, ptr %13, align 1
  %70 = zext i8 %69 to i32
  %71 = and i32 %70, 127
  %72 = trunc i32 %71 to i8
  store i8 %72, ptr %14, align 1
  %73 = load ptr, ptr %12, align 8
  %74 = load i32, ptr @hf_gsm_sms_dis_field_addr_extension, align 4
  %75 = load ptr, ptr %6, align 8
  %76 = load i32, ptr %15, align 4
  %77 = call ptr @proto_tree_add_item(ptr noundef %73, i32 noundef %74, ptr noundef %75, i32 noundef %76, i32 noundef 1, i32 noundef 0)
  %78 = load ptr, ptr %12, align 8
  %79 = load i32, ptr @hf_gsm_sms_dis_field_addr_num_type, align 4
  %80 = load ptr, ptr %6, align 8
  %81 = load i32, ptr %15, align 4
  %82 = call ptr @proto_tree_add_item(ptr noundef %78, i32 noundef %79, ptr noundef %80, i32 noundef %81, i32 noundef 1, i32 noundef 0)
  %83 = load ptr, ptr %12, align 8
  %84 = load i32, ptr @hf_gsm_sms_dis_field_addr_num_plan, align 4
  %85 = load ptr, ptr %6, align 8
  %86 = load i32, ptr %15, align 4
  %87 = call ptr @proto_tree_add_item(ptr noundef %83, i32 noundef %84, ptr noundef %85, i32 noundef %86, i32 noundef 1, i32 noundef 0)
  %88 = load i32, ptr %15, align 4
  %89 = add i32 %88, 1
  store i32 %89, ptr %15, align 4
  %90 = load i8, ptr %13, align 1
  %91 = zext i8 %90 to i32
  %92 = and i32 %91, 112
  %93 = ashr i32 %92, 4
  switch i32 %93, label %112 [
    i32 5, label %94
  ]

94:                                               ; preds = %48
  %95 = load i32, ptr %18, align 4
  %96 = shl i32 %95, 2
  %97 = udiv i32 %96, 7
  store i32 %97, ptr %18, align 4
  %98 = load ptr, ptr %7, align 8
  %99 = getelementptr inbounds nuw %struct._packet_info, ptr %98, i32 0, i32 51
  %100 = load ptr, ptr %99, align 8
  %101 = load ptr, ptr %6, align 8
  %102 = load i32, ptr %15, align 4
  %103 = shl i32 %102, 3
  %104 = load i32, ptr %18, align 4
  %105 = icmp ugt i32 %104, 20
  br i1 %105, label %106, label %107

106:                                              ; preds = %94
  br label %109

107:                                              ; preds = %94
  %108 = load i32, ptr %18, align 4
  br label %109

109:                                              ; preds = %107, %106
  %110 = phi i32 [ 20, %106 ], [ %108, %107 ]
  %111 = call ptr @tvb_get_ts_23_038_7bits_string_packed(ptr noundef %100, ptr noundef %101, i32 noundef %103, i32 noundef %110)
  store ptr %111, ptr %19, align 8
  br label %120

112:                                              ; preds = %48
  %113 = load ptr, ptr %7, align 8
  %114 = getelementptr inbounds nuw %struct._packet_info, ptr %113, i32 0, i32 51
  %115 = load ptr, ptr %114, align 8
  %116 = load ptr, ptr %6, align 8
  %117 = load i32, ptr %15, align 4
  %118 = load i32, ptr %16, align 4
  %119 = call ptr @tvb_get_string_enc(ptr noundef %115, ptr noundef %116, i32 noundef %117, i32 noundef %118, i32 noundef -2147483578)
  store ptr %119, ptr %19, align 8
  br label %120

120:                                              ; preds = %112, %109
  %121 = load ptr, ptr %10, align 8
  %122 = call i32 @g_ascii_strncasecmp(ptr noundef %121, ptr noundef @.str.2, i64 noundef 4)
  %123 = icmp eq i32 %122, 0
  br i1 %123, label %124, label %158

124:                                              ; preds = %120
  %125 = load ptr, ptr %12, align 8
  %126 = load i32, ptr @hf_gsm_sms_tp_oa, align 4
  %127 = load ptr, ptr %6, align 8
  %128 = load i32, ptr %15, align 4
  %129 = load i32, ptr %16, align 4
  %130 = load ptr, ptr %19, align 8
  %131 = call ptr @proto_tree_add_string(ptr noundef %125, i32 noundef %126, ptr noundef %127, i32 noundef %128, i32 noundef %129, ptr noundef %130)
  %132 = load i8, ptr %14, align 1
  %133 = zext i8 %132 to i32
  %134 = ashr i32 %133, 4
  %135 = icmp eq i32 %134, 1
  br i1 %135, label %136, label %147

136:                                              ; preds = %124
  %137 = load i8, ptr %14, align 1
  %138 = zext i8 %137 to i32
  %139 = and i32 %138, 15
  %140 = icmp eq i32 %139, 1
  br i1 %140, label %141, label %147

141:                                              ; preds = %136
  %142 = load ptr, ptr %6, align 8
  %143 = load ptr, ptr %12, align 8
  %144 = load i32, ptr %15, align 4
  %145 = load i32, ptr %16, align 4
  %146 = call ptr @dissect_e164_msisdn(ptr noundef %142, ptr noundef %143, i32 noundef %144, i32 noundef %145, i32 noundef 1)
  br label %147

147:                                              ; preds = %141, %136, %124
  %148 = load ptr, ptr %7, align 8
  %149 = getelementptr inbounds nuw %struct._packet_info, ptr %148, i32 0, i32 51
  %150 = load ptr, ptr %149, align 8
  %151 = load ptr, ptr %7, align 8
  %152 = load i32, ptr @proto_gsm_sms, align 4
  %153 = load ptr, ptr %7, align 8
  %154 = getelementptr inbounds nuw %struct._packet_info, ptr %153, i32 0, i32 51
  %155 = load ptr, ptr %154, align 8
  %156 = load ptr, ptr %19, align 8
  %157 = call noalias ptr @wmem_strdup(ptr noundef %155, ptr noundef %156)
  call void @p_add_proto_data(ptr noundef %150, ptr noundef %151, i32 noundef %152, i32 noundef 0, ptr noundef %157)
  br label %218

158:                                              ; preds = %120
  %159 = load ptr, ptr %10, align 8
  %160 = call i32 @g_ascii_strncasecmp(ptr noundef %159, ptr noundef @.str.3, i64 noundef 4)
  %161 = icmp eq i32 %160, 0
  br i1 %161, label %162, label %196

162:                                              ; preds = %158
  %163 = load ptr, ptr %12, align 8
  %164 = load i32, ptr @hf_gsm_sms_tp_da, align 4
  %165 = load ptr, ptr %6, align 8
  %166 = load i32, ptr %15, align 4
  %167 = load i32, ptr %16, align 4
  %168 = load ptr, ptr %19, align 8
  %169 = call ptr @proto_tree_add_string(ptr noundef %163, i32 noundef %164, ptr noundef %165, i32 noundef %166, i32 noundef %167, ptr noundef %168)
  %170 = load i8, ptr %14, align 1
  %171 = zext i8 %170 to i32
  %172 = ashr i32 %171, 4
  %173 = icmp eq i32 %172, 1
  br i1 %173, label %174, label %185

174:                                              ; preds = %162
  %175 = load i8, ptr %14, align 1
  %176 = zext i8 %175 to i32
  %177 = and i32 %176, 15
  %178 = icmp eq i32 %177, 1
  br i1 %178, label %179, label %185

179:                                              ; preds = %174
  %180 = load ptr, ptr %6, align 8
  %181 = load ptr, ptr %12, align 8
  %182 = load i32, ptr %15, align 4
  %183 = load i32, ptr %16, align 4
  %184 = call ptr @dissect_e164_msisdn(ptr noundef %180, ptr noundef %181, i32 noundef %182, i32 noundef %183, i32 noundef 1)
  br label %185

185:                                              ; preds = %179, %174, %162
  %186 = load ptr, ptr %7, align 8
  %187 = getelementptr inbounds nuw %struct._packet_info, ptr %186, i32 0, i32 51
  %188 = load ptr, ptr %187, align 8
  %189 = load ptr, ptr %7, align 8
  %190 = load i32, ptr @proto_gsm_sms, align 4
  %191 = load ptr, ptr %7, align 8
  %192 = getelementptr inbounds nuw %struct._packet_info, ptr %191, i32 0, i32 51
  %193 = load ptr, ptr %192, align 8
  %194 = load ptr, ptr %19, align 8
  %195 = call noalias ptr @wmem_strdup(ptr noundef %193, ptr noundef %194)
  call void @p_add_proto_data(ptr noundef %188, ptr noundef %189, i32 noundef %190, i32 noundef 0, ptr noundef %195)
  br label %217

196:                                              ; preds = %158
  %197 = load ptr, ptr %10, align 8
  %198 = call i32 @g_ascii_strncasecmp(ptr noundef %197, ptr noundef @.str.4, i64 noundef 4)
  %199 = icmp eq i32 %198, 0
  br i1 %199, label %200, label %208

200:                                              ; preds = %196
  %201 = load ptr, ptr %12, align 8
  %202 = load i32, ptr @hf_gsm_sms_tp_ra, align 4
  %203 = load ptr, ptr %6, align 8
  %204 = load i32, ptr %15, align 4
  %205 = load i32, ptr %16, align 4
  %206 = load ptr, ptr %19, align 8
  %207 = call ptr @proto_tree_add_string(ptr noundef %201, i32 noundef %202, ptr noundef %203, i32 noundef %204, i32 noundef %205, ptr noundef %206)
  br label %216

208:                                              ; preds = %196
  %209 = load ptr, ptr %12, align 8
  %210 = load i32, ptr @hf_gsm_sms_tp_digits, align 4
  %211 = load ptr, ptr %6, align 8
  %212 = load i32, ptr %15, align 4
  %213 = load i32, ptr %16, align 4
  %214 = load ptr, ptr %19, align 8
  %215 = call ptr @proto_tree_add_string(ptr noundef %209, i32 noundef %210, ptr noundef %211, i32 noundef %212, i32 noundef %213, ptr noundef %214)
  br label %216

216:                                              ; preds = %208, %200
  br label %217

217:                                              ; preds = %216, %185
  br label %218

218:                                              ; preds = %217, %147
  %219 = load ptr, ptr %11, align 8
  %220 = load ptr, ptr %19, align 8
  call void (ptr, ptr, ...) @proto_item_append_text(ptr noundef %219, ptr noundef @.str.5, ptr noundef %220)
  %221 = load i32, ptr %15, align 4
  %222 = load i32, ptr %16, align 4
  %223 = add i32 %221, %222
  %224 = load ptr, ptr %9, align 8
  store i32 %223, ptr %224, align 4
  store i32 0, ptr %20, align 4
  br label %225

225:                                              ; preds = %218, %36
  call void @llvm.lifetime.end.p0(i64 8, ptr %19) #13
  call void @llvm.lifetime.end.p0(i64 4, ptr %18) #13
  call void @llvm.lifetime.end.p0(i64 4, ptr %17) #13
  call void @llvm.lifetime.end.p0(i64 4, ptr %16) #13
  call void @llvm.lifetime.end.p0(i64 4, ptr %15) #13
  call void @llvm.lifetime.end.p0(i64 1, ptr %14) #13
  call void @llvm.lifetime.end.p0(i64 1, ptr %13) #13
  call void @llvm.lifetime.end.p0(i64 8, ptr %12) #13
  call void @llvm.lifetime.end.p0(i64 8, ptr %11) #13
  %226 = load i32, ptr %20, align 4
  switch i32 %226, label %228 [
    i32 0, label %227
    i32 1, label %227
  ]

227:                                              ; preds = %225, %225
  ret void

228:                                              ; preds = %225
  unreachable
}