; Function Attrs: null_pointer_is_valid sspstrong uwtable
define hidden void @dis_field_addr(ptr noundef %0, ptr noundef %1, ptr noundef %2, ptr noundef captures(none) %3, ptr noundef %4) local_unnamed_addr #0 {
  %6 = alloca ptr, align 8
  call void @llvm.lifetime.start.p0(i64 8, ptr nonnull %6) #10
  %7 = load i32, ptr %3, align 4
  %8 = tail call zeroext i8 @tvb_get_uint8(ptr noundef %0, i32 noundef %7)
  %9 = zext i8 %8 to i32
  %10 = add nuw nsw i32 %9, 1
  %11 = lshr i32 %10, 1
  %12 = tail call i32 @tvb_reported_length_remaining(ptr noundef %0, i32 noundef %7)
  %.not = icmp ugt i32 %12, %11
  br i1 %.not, label %17, label %13

13:                                               ; preds = %5
  %14 = tail call ptr (ptr, ptr, ptr, ptr, i32, i32, ptr, ...) @proto_tree_add_expert_format(ptr noundef %2, ptr noundef %1, ptr noundef nonnull @ei_gsm_sms_short_data, ptr noundef %0, i32 noundef %7, i32 noundef %12, ptr noundef nonnull @.str, ptr noundef %4)
  %15 = load i32, ptr %3, align 4
  %16 = add i32 %15, %12
  br label %85

17:                                               ; preds = %5
  %18 = add nuw nsw i32 %11, 2
  %19 = load i32, ptr @ett_addr, align 4
  %20 = call ptr @proto_tree_add_subtree(ptr noundef %2, ptr noundef %0, i32 noundef %7, i32 noundef %18, i32 noundef %19, ptr noundef nonnull %6, ptr noundef %4)
  %21 = load i32, ptr @hf_gsm_sms_dis_field_addr_length, align 4
  %22 = call ptr (ptr, i32, ptr, i32, i32, i32, ptr, ...) @proto_tree_add_uint_format_value(ptr noundef %20, i32 noundef %21, ptr noundef %0, i32 noundef %7, i32 noundef 1, i32 noundef %9, ptr noundef nonnull @.str.1, i32 noundef %9)
  %23 = add i32 %7, 1
  %24 = call zeroext i8 @tvb_get_uint8(ptr noundef %0, i32 noundef %23)
  %25 = load i32, ptr @hf_gsm_sms_dis_field_addr_extension, align 4
  %26 = call ptr @proto_tree_add_item(ptr noundef %20, i32 noundef %25, ptr noundef %0, i32 noundef %23, i32 noundef 1, i32 noundef 0)
  %27 = load i32, ptr @hf_gsm_sms_dis_field_addr_num_type, align 4
  %28 = call ptr @proto_tree_add_item(ptr noundef %20, i32 noundef %27, ptr noundef %0, i32 noundef %23, i32 noundef 1, i32 noundef 0)
  %29 = load i32, ptr @hf_gsm_sms_dis_field_addr_num_plan, align 4
  %30 = call ptr @proto_tree_add_item(ptr noundef %20, i32 noundef %29, ptr noundef %0, i32 noundef %23, i32 noundef 1, i32 noundef 0)
  %31 = add i32 %7, 2
  %32 = and i8 %24, 112
  %cond = icmp eq i8 %32, 80
  br i1 %cond, label %33, label %41

33:                                               ; preds = %17
  %.tr = zext i8 %8 to i16
  %.lhs.trunc = shl nuw nsw i16 %.tr, 2
  %34 = udiv i16 %.lhs.trunc, 7
  %35 = getelementptr inbounds nuw i8, ptr %1, i64 408
  %36 = load ptr, ptr %35, align 8
  %37 = shl i32 %31, 3
  %38 = call i16 @llvm.umin.i16(i16 %34, i16 20)
  %39 = zext nneg i16 %38 to i32
  %40 = call ptr @tvb_get_ts_23_038_7bits_string_packed(ptr noundef %36, ptr noundef %0, i32 noundef %37, i32 noundef %39)
  br label %45

41:                                               ; preds = %17
  %42 = getelementptr inbounds nuw i8, ptr %1, i64 408
  %43 = load ptr, ptr %42, align 8
  %44 = call ptr @tvb_get_string_enc(ptr noundef %43, ptr noundef %0, i32 noundef %31, i32 noundef %11, i32 noundef -2147483578)
  br label %45

45:                                               ; preds = %41, %33
  %.0 = phi ptr [ %40, %33 ], [ %44, %41 ]
  %46 = call i32 @g_ascii_strncasecmp(ptr noundef %4, ptr noundef nonnull @.str.2, i64 noundef 4)
  %47 = icmp eq i32 %46, 0
  br i1 %47, label %48, label %59

48:                                               ; preds = %45
  %49 = load i32, ptr @hf_gsm_sms_tp_oa, align 4
  %50 = call ptr @proto_tree_add_string(ptr noundef %20, i32 noundef %49, ptr noundef %0, i32 noundef %31, i32 noundef %11, ptr noundef %.0)
  %51 = and i8 %24, 127
  %or.cond = icmp eq i8 %51, 17
  br i1 %or.cond, label %52, label %54

52:                                               ; preds = %48
  %53 = call ptr @dissect_e164_msisdn(ptr noundef %0, ptr noundef %20, i32 noundef %31, i32 noundef %11, i32 noundef 1)
  br label %54

54:                                               ; preds = %52, %48
  %55 = getelementptr inbounds nuw i8, ptr %1, i64 408
  %56 = load ptr, ptr %55, align 8
  %57 = load i32, ptr @proto_gsm_sms, align 4
  %58 = call noalias ptr @wmem_strdup(ptr noundef %56, ptr noundef %.0)
  call void @p_add_proto_data(ptr noundef %56, ptr noundef %1, i32 noundef %57, i32 noundef 0, ptr noundef %58)
  br label %82

59:                                               ; preds = %45
  %60 = call i32 @g_ascii_strncasecmp(ptr noundef %4, ptr noundef nonnull @.str.3, i64 noundef 4)
  %61 = icmp eq i32 %60, 0
  br i1 %61, label %62, label %73

62:                                               ; preds = %59
  %63 = load i32, ptr @hf_gsm_sms_tp_da, align 4
  %64 = call ptr @proto_tree_add_string(ptr noundef %20, i32 noundef %63, ptr noundef %0, i32 noundef %31, i32 noundef %11, ptr noundef %.0)
  %65 = and i8 %24, 127
  %or.cond102 = icmp eq i8 %65, 17
  br i1 %or.cond102, label %66, label %68

66:                                               ; preds = %62
  %67 = call ptr @dissect_e164_msisdn(ptr noundef %0, ptr noundef %20, i32 noundef %31, i32 noundef %11, i32 noundef 1)
  br label %68

68:                                               ; preds = %66, %62
  %69 = getelementptr inbounds nuw i8, ptr %1, i64 408
  %70 = load ptr, ptr %69, align 8
  %71 = load i32, ptr @proto_gsm_sms, align 4
  %72 = call noalias ptr @wmem_strdup(ptr noundef %70, ptr noundef %.0)
  call void @p_add_proto_data(ptr noundef %70, ptr noundef %1, i32 noundef %71, i32 noundef 0, ptr noundef %72)
  br label %82

73:                                               ; preds = %59
  %74 = call i32 @g_ascii_strncasecmp(ptr noundef %4, ptr noundef nonnull @.str.4, i64 noundef 4)
  %75 = icmp eq i32 %74, 0
  br i1 %75, label %76, label %79

76:                                               ; preds = %73
  %77 = load i32, ptr @hf_gsm_sms_tp_ra, align 4
  %78 = call ptr @proto_tree_add_string(ptr noundef %20, i32 noundef %77, ptr noundef %0, i32 noundef %31, i32 noundef %11, ptr noundef %.0)
  br label %82

79:                                               ; preds = %73
  %80 = load i32, ptr @hf_gsm_sms_tp_digits, align 4
  %81 = call ptr @proto_tree_add_string(ptr noundef %20, i32 noundef %80, ptr noundef %0, i32 noundef %31, i32 noundef %11, ptr noundef %.0)
  br label %82

82:                                               ; preds = %68, %79, %76, %54
  %83 = load ptr, ptr %6, align 8
  call void (ptr, ptr, ...) @proto_item_append_text(ptr noundef %83, ptr noundef nonnull @.str.5, ptr noundef %.0)
  %84 = add i32 %11, %31
  br label %85

85:                                               ; preds = %82, %13
  %storemerge = phi i32 [ %84, %82 ], [ %16, %13 ]
  store i32 %storemerge, ptr %3, align 4
  call void @llvm.lifetime.end.p0(i64 8, ptr nonnull %6) #10
  ret void
}